; Function Attrs: nounwind uwtable
define i32 @bufferevent_flush(ptr noundef %0, i16 noundef signext %1, i32 noundef %2) local_unnamed_addr #0 {
  %4 = getelementptr inbounds nuw i8, ptr %0, i64 448
  %5 = load ptr, ptr %4, align 8
  %.not = icmp eq ptr %5, null
  br i1 %.not, label %9, label %6

6:                                                ; preds = %3
  %7 = load ptr, ptr getelementptr inbounds nuw (i8, ptr @evthread_lock_fns_, i64 24), align 8
  %8 = tail call i32 %7(i32 noundef 0, ptr noundef nonnull %5) #7
  br label %9

9:                                                ; preds = %6, %3
  %10 = getelementptr inbounds nuw i8, ptr %0, i64 8
  %11 = load ptr, ptr %10, align 8
  %12 = getelementptr inbounds nuw i8, ptr %11, i64 56
  %13 = load ptr, ptr %12, align 8
  %.not14 = icmp eq ptr %13, null
  br i1 %.not14, label %16, label %14

14:                                               ; preds = %9
  %15 = tail call i32 %13(ptr noundef nonnull %0, i16 noundef signext %1, i32 noundef %2) #7
  br label %16

16:                                               ; preds = %9, %14
  %.0 = phi i32 [ %15, %14 ], [ -1, %9 ]
  %17 = load ptr, ptr %4, align 8
  %.not15 = icmp eq ptr %17, null
  br i1 %.not15, label %21, label %18

18:                                               ; preds = %16
  %19 = load ptr, ptr getelementptr inbounds nuw (i8, ptr @evthread_lock_fns_, i64 32), align 8
  %20 = tail call i32 %19(i32 noundef 0, ptr noundef nonnull %17) #7
  br label %21

21:                                               ; preds = %18, %16
  ret i32 %.0
}